target datalayout = "e-m:e-p270:32:32-p271:32:32-p272:64:64-i64:64-i128:128-f80:128-n8:16:32:64-S128"
target triple = "x86_64-pc-linux-gnu"

%struct.AVCodecContext = type { ptr, i32, i32, ptr, i32, i32, ptr, ptr, ptr, i64, i32, i32, ptr, i32, %struct.AVRational, %struct.AVRational, %struct.AVRational, i32, i32, i32, i32, i32, %struct.AVRational, i32, i32, i32, i32, i32, i32, i32, i32, i32, i32, i32, ptr, ptr, i32, float, float, float, float, float, float, float, float, float, i32, i32, i32, i32, i32, i32, i32, i32, i32, i32, i32, i32, ptr, ptr, ptr, i32, i32, i32, i32, i32, i32, i32, i32, i32, i32, %struct.AVChannelLayout, i32, i32, i32, i32, i32, i32, i32, i32, ptr, i32, i32, i32, float, float, i32, i32, i32, i32, i32, ptr, i64, i64, float, float, i32, i32, ptr, ptr, i32, i32, i32, i32, i32, ptr, ptr, ptr, ptr, i32, i32, [8 x i64], i32, i32, i32, i32, i32, i32, i32, ptr, ptr, i32, i32, i32, i32, i32, i32, i32, i32, i32, i32, ptr, ptr, i32, i32, ptr, ptr, ptr, ptr, i32, i32, i64, i32, i32, i64, ptr, i64, ptr, i32, ptr, i32 }
%struct.AVRational = type { i32, i32 }
%struct.AVChannelLayout = type { i32, i32, %union.anon.0, ptr }
%union.anon.0 = type { i64 }
%struct.MVHAContext = type { %struct.BitstreamContextBE, i32, [256 x i8], [256 x i32], %struct.VLC, %struct.FFZStream, %struct.LLVidDSPContext }
%struct.BitstreamContextBE = type { i64, ptr, ptr, ptr, i32, i32 }
%struct.VLC = type { i32, ptr, i32, i32 }
%struct.FFZStream = type { %struct.z_stream_s, i32 }
%struct.z_stream_s = type { ptr, i32, i64, ptr, i32, i64, ptr, ptr, ptr, ptr, ptr, i32, i64, i64 }
%struct.LLVidDSPContext = type { ptr, ptr, ptr, ptr, ptr }
%struct.Node = type { i16, i16, i16, i16, i32 }

@.str.4 = private unnamed_addr constant [16 x i8] c"count overflow\0A\00", align 1

; Function Attrs: nounwind uwtable
define internal i32 @build_vlc(ptr noundef %0, ptr noundef %1) #1 {
  %3 = alloca i32, align 4
  %4 = alloca ptr, align 8
  %5 = alloca ptr, align 8
  %6 = alloca ptr, align 8
  %7 = alloca [512 x %struct.Node], align 16
  %8 = alloca [256 x i32], align 16
  %9 = alloca [256 x i16], align 16
  %10 = alloca [256 x i8], align 16
  %11 = alloca i32, align 4
  %12 = alloca i32, align 4
  %13 = alloca i32, align 4
  %14 = alloca i32, align 4
  %15 = alloca i32, align 4
  %16 = alloca i32, align 4
  %17 = alloca i32, align 4
  %18 = alloca i32, align 4
  %19 = alloca i32, align 4
  %20 = alloca i32, align 4
  %21 = alloca i32, align 4
  store ptr %0, ptr %4, align 8, !tbaa !4
  store ptr %1, ptr %5, align 8, !tbaa !81
  call void @llvm.lifetime.start.p0(i64 8, ptr %6) #8
  %22 = load ptr, ptr %4, align 8, !tbaa !4
  %23 = getelementptr inbounds nuw %struct.AVCodecContext, ptr %22, i32 0, i32 6
  %24 = load ptr, ptr %23, align 8, !tbaa !9
  store ptr %24, ptr %6, align 8, !tbaa !29
  call void @llvm.lifetime.start.p0(i64 6144, ptr %7) #8
  call void @llvm.lifetime.start.p0(i64 1024, ptr %8) #8
  call void @llvm.lifetime.start.p0(i64 512, ptr %9) #8
  call void @llvm.lifetime.start.p0(i64 256, ptr %10) #8
  call void @llvm.lifetime.start.p0(i64 4, ptr %11) #8
  call void @llvm.lifetime.start.p0(i64 4, ptr %12) #8
  call void @llvm.lifetime.start.p0(i64 4, ptr %13) #8
  call void @llvm.lifetime.start.p0(i64 4, ptr %14) #8
  store i32 0, ptr %14, align 4, !tbaa !41
  %25 = load ptr, ptr %5, align 8, !tbaa !81
  call void @ff_vlc_free(ptr noundef %25)
  store i32 0, ptr %12, align 4, !tbaa !41
  br label %26

26:                                               ; preds = %70, %2
  %27 = load i32, ptr %12, align 4, !tbaa !41
  %28 = load ptr, ptr %6, align 8, !tbaa !29
  %29 = getelementptr inbounds nuw %struct.MVHAContext, ptr %28, i32 0, i32 1
  %30 = load i32, ptr %29, align 8, !tbaa !58
  %31 = icmp slt i32 %27, %30
  br i1 %31, label %32, label %73

32:                                               ; preds = %26
  %33 = load ptr, ptr %6, align 8, !tbaa !29
  %34 = getelementptr inbounds nuw %struct.MVHAContext, ptr %33, i32 0, i32 3
  %35 = load i32, ptr %12, align 4, !tbaa !41
  %36 = sext i32 %35 to i64
  %37 = getelementptr inbounds [256 x i32], ptr %34, i64 0, i64 %36
  %38 = load i32, ptr %37, align 4, !tbaa !41
  %39 = load i32, ptr %12, align 4, !tbaa !41
  %40 = sext i32 %39 to i64
  %41 = getelementptr inbounds [512 x %struct.Node], ptr %7, i64 0, i64 %40
  %42 = getelementptr inbounds nuw %struct.Node, ptr %41, i32 0, i32 4
  store i32 %38, ptr %42, align 4, !tbaa !83
  %43 = load ptr, ptr %6, align 8, !tbaa !29
  %44 = getelementptr inbounds nuw %struct.MVHAContext, ptr %43, i32 0, i32 2
  %45 = load i32, ptr %12, align 4, !tbaa !41
  %46 = sext i32 %45 to i64
  %47 = getelementptr inbounds [256 x i8], ptr %44, i64 0, i64 %46
  %48 = load i8, ptr %47, align 1, !tbaa !40
  %49 = zext i8 %48 to i16
  %50 = load i32, ptr %12, align 4, !tbaa !41
  %51 = sext i32 %50 to i64
  %52 = getelementptr inbounds [512 x %struct.Node], ptr %7, i64 0, i64 %51
  %53 = getelementptr inbounds nuw %struct.Node, ptr %52, i32 0, i32 0
  store i16 %49, ptr %53, align 4, !tbaa !86
  %54 = load i32, ptr %12, align 4, !tbaa !41
  %55 = sext i32 %54 to i64
  %56 = getelementptr inbounds [512 x %struct.Node], ptr %7, i64 0, i64 %55
  %57 = getelementptr inbounds nuw %struct.Node, ptr %56, i32 0, i32 1
  store i16 -2, ptr %57, align 2, !tbaa !87
  %58 = load i32, ptr %12, align 4, !tbaa !41
  %59 = trunc i32 %58 to i16
  %60 = load i32, ptr %12, align 4, !tbaa !41
  %61 = sext i32 %60 to i64
  %62 = getelementptr inbounds [512 x %struct.Node], ptr %7, i64 0, i64 %61
  %63 = getelementptr inbounds nuw %struct.Node, ptr %62, i32 0, i32 2
  store i16 %59, ptr %63, align 4, !tbaa !88
  %64 = load i32, ptr %12, align 4, !tbaa !41
  %65 = trunc i32 %64 to i16
  %66 = load i32, ptr %12, align 4, !tbaa !41
  %67 = sext i32 %66 to i64
  %68 = getelementptr inbounds [512 x %struct.Node], ptr %7, i64 0, i64 %67
  %69 = getelementptr inbounds nuw %struct.Node, ptr %68, i32 0, i32 3
  store i16 %65, ptr %69, align 2, !tbaa !89
  br label %70

70:                                               ; preds = %32
  %71 = load i32, ptr %12, align 4, !tbaa !41
  %72 = add nsw i32 %71, 1
  store i32 %72, ptr %12, align 4, !tbaa !41
  br label %26, !llvm.loop !90

73:                                               ; preds = %26
  %74 = load ptr, ptr %6, align 8, !tbaa !29
  %75 = getelementptr inbounds nuw %struct.MVHAContext, ptr %74, i32 0, i32 1
  %76 = load i32, ptr %75, align 8, !tbaa !58
  store i32 %76, ptr %11, align 4, !tbaa !41
  store i32 0, ptr %13, align 4, !tbaa !41
  br label %77

77:                                               ; preds = %194, %73
  store i32 0, ptr %12, align 4, !tbaa !41
  br label %78

78:                                               ; preds = %188, %77
  call void @llvm.lifetime.start.p0(i64 4, ptr %15) #8
  %79 = load i32, ptr %13, align 4, !tbaa !41
  store i32 %79, ptr %15, align 4, !tbaa !41
  call void @llvm.lifetime.start.p0(i64 4, ptr %16) #8
  %80 = load i32, ptr %11, align 4, !tbaa !41
  store i32 %80, ptr %16, align 4, !tbaa !41
  call void @llvm.lifetime.start.p0(i64 4, ptr %17) #8
  %81 = load i32, ptr %11, align 4, !tbaa !41
  store i32 %81, ptr %17, align 4, !tbaa !41
  call void @llvm.lifetime.start.p0(i64 4, ptr %18) #8
  call void @llvm.lifetime.start.p0(i64 4, ptr %19) #8
  %82 = load i32, ptr %11, align 4, !tbaa !41
  %83 = sext i32 %82 to i64
  %84 = getelementptr inbounds [512 x %struct.Node], ptr %7, i64 0, i64 %83
  %85 = getelementptr inbounds nuw %struct.Node, ptr %84, i32 0, i32 4
  store i32 -1, ptr %85, align 4, !tbaa !83
  br label %86

86:                                               ; preds = %119, %78
  call void @llvm.lifetime.start.p0(i64 4, ptr %20) #8
  %87 = load i32, ptr %15, align 4, !tbaa !41
  %88 = sext i32 %87 to i64
  %89 = getelementptr inbounds [512 x %struct.Node], ptr %7, i64 0, i64 %88
  %90 = getelementptr inbounds nuw %struct.Node, ptr %89, i32 0, i32 4
  %91 = load i32, ptr %90, align 4, !tbaa !83
  store i32 %91, ptr %20, align 4, !tbaa !41
  %92 = load i32, ptr %20, align 4, !tbaa !41
  %93 = icmp ne i32 %92, 0
  br i1 %93, label %94, label %116

94:                                               ; preds = %86
  %95 = load i32, ptr %20, align 4, !tbaa !41
  %96 = load i32, ptr %16, align 4, !tbaa !41
  %97 = sext i32 %96 to i64
  %98 = getelementptr inbounds [512 x %struct.Node], ptr %7, i64 0, i64 %97
  %99 = getelementptr inbounds nuw %struct.Node, ptr %98, i32 0, i32 4
  %100 = load i32, ptr %99, align 4, !tbaa !83
  %101 = icmp ult i32 %95, %100
  br i1 %101, label %102, label %116

102:                                              ; preds = %94
  %103 = load i32, ptr %20, align 4, !tbaa !41
  %104 = load i32, ptr %17, align 4, !tbaa !41
  %105 = sext i32 %104 to i64
  %106 = getelementptr inbounds [512 x %struct.Node], ptr %7, i64 0, i64 %105
  %107 = getelementptr inbounds nuw %struct.Node, ptr %106, i32 0, i32 4
  %108 = load i32, ptr %107, align 4, !tbaa !83
  %109 = icmp uge i32 %103, %108
  br i1 %109, label %110, label %112

110:                                              ; preds = %102
  %111 = load i32, ptr %15, align 4, !tbaa !41
  store i32 %111, ptr %16, align 4, !tbaa !41
  br label %115

112:                                              ; preds = %102
  %113 = load i32, ptr %17, align 4, !tbaa !41
  store i32 %113, ptr %16, align 4, !tbaa !41
  %114 = load i32, ptr %15, align 4, !tbaa !41
  store i32 %114, ptr %17, align 4, !tbaa !41
  br label %115

115:                                              ; preds = %112, %110
  br label %116

116:                                              ; preds = %115, %94, %86
  %117 = load i32, ptr %15, align 4, !tbaa !41
  %118 = add nsw i32 %117, 1
  store i32 %118, ptr %15, align 4, !tbaa !41
  call void @llvm.lifetime.end.p0(i64 4, ptr %20) #8
  br label %119

119:                                              ; preds = %116
  %120 = load i32, ptr %15, align 4, !tbaa !41
  %121 = load i32, ptr %11, align 4, !tbaa !41
  %122 = icmp ne i32 %120, %121
  br i1 %122, label %86, label %123, !llvm.loop !91

123:                                              ; preds = %119
  %124 = load i32, ptr %16, align 4, !tbaa !41
  %125 = load i32, ptr %11, align 4, !tbaa !41
  %126 = icmp eq i32 %124, %125
  br i1 %126, label %127, label %128

127:                                              ; preds = %123
  store i32 7, ptr %21, align 4
  br label %185

128:                                              ; preds = %123
  %129 = load i32, ptr %17, align 4, !tbaa !41
  %130 = sext i32 %129 to i64
  %131 = getelementptr inbounds [512 x %struct.Node], ptr %7, i64 0, i64 %130
  %132 = getelementptr inbounds nuw %struct.Node, ptr %131, i32 0, i32 4
  %133 = load i32, ptr %132, align 4, !tbaa !83
  store i32 %133, ptr %18, align 4, !tbaa !41
  %134 = load i32, ptr %16, align 4, !tbaa !41
  %135 = sext i32 %134 to i64
  %136 = getelementptr inbounds [512 x %struct.Node], ptr %7, i64 0, i64 %135
  %137 = getelementptr inbounds nuw %struct.Node, ptr %136, i32 0, i32 4
  %138 = load i32, ptr %137, align 4, !tbaa !83
  store i32 %138, ptr %19, align 4, !tbaa !41
  %139 = load i32, ptr %17, align 4, !tbaa !41
  %140 = sext i32 %139 to i64
  %141 = getelementptr inbounds [512 x %struct.Node], ptr %7, i64 0, i64 %140
  %142 = getelementptr inbounds nuw %struct.Node, ptr %141, i32 0, i32 4
  store i32 0, ptr %142, align 4, !tbaa !83
  %143 = load i32, ptr %16, align 4, !tbaa !41
  %144 = sext i32 %143 to i64
  %145 = getelementptr inbounds [512 x %struct.Node], ptr %7, i64 0, i64 %144
  %146 = getelementptr inbounds nuw %struct.Node, ptr %145, i32 0, i32 4
  store i32 0, ptr %146, align 4, !tbaa !83
  %147 = load i32, ptr %18, align 4, !tbaa !41
  %148 = load i32, ptr %19, align 4, !tbaa !41
  %149 = sub i32 -1, %148
  %150 = icmp uge i32 %147, %149
  br i1 %150, label %151, label %153

151:                                              ; preds = %128
  %152 = load ptr, ptr %4, align 8, !tbaa !4
  call void (ptr, i32, ptr, ...) @av_log(ptr noundef %152, i32 noundef 16, ptr noundef @.str.4)
  store i32 -1094995529, ptr %3, align 4
  store i32 1, ptr %21, align 4
  br label %185

153:                                              ; preds = %128
  %154 = load i32, ptr %18, align 4, !tbaa !41
  %155 = load i32, ptr %19, align 4, !tbaa !41
  %156 = add i32 %154, %155
  %157 = load i32, ptr %11, align 4, !tbaa !41
  %158 = sext i32 %157 to i64
  %159 = getelementptr inbounds [512 x %struct.Node], ptr %7, i64 0, i64 %158
  %160 = getelementptr inbounds nuw %struct.Node, ptr %159, i32 0, i32 4
  store i32 %156, ptr %160, align 4, !tbaa !83
  %161 = load i32, ptr %11, align 4, !tbaa !41
  %162 = sext i32 %161 to i64
  %163 = getelementptr inbounds [512 x %struct.Node], ptr %7, i64 0, i64 %162
  %164 = getelementptr inbounds nuw %struct.Node, ptr %163, i32 0, i32 0
  store i16 -1, ptr %164, align 4, !tbaa !86
  %165 = load i32, ptr %11, align 4, !tbaa !41
  %166 = trunc i32 %165 to i16
  %167 = load i32, ptr %11, align 4, !tbaa !41
  %168 = sext i32 %167 to i64
  %169 = getelementptr inbounds [512 x %struct.Node], ptr %7, i64 0, i64 %168
  %170 = getelementptr inbounds nuw %struct.Node, ptr %169, i32 0, i32 1
  store i16 %166, ptr %170, align 2, !tbaa !87
  %171 = load i32, ptr %16, align 4, !tbaa !41
  %172 = trunc i32 %171 to i16
  %173 = load i32, ptr %11, align 4, !tbaa !41
  %174 = sext i32 %173 to i64
  %175 = getelementptr inbounds [512 x %struct.Node], ptr %7, i64 0, i64 %174
  %176 = getelementptr inbounds nuw %struct.Node, ptr %175, i32 0, i32 2
  store i16 %172, ptr %176, align 4, !tbaa !88
  %177 = load i32, ptr %17, align 4, !tbaa !41
  %178 = trunc i32 %177 to i16
  %179 = load i32, ptr %11, align 4, !tbaa !41
  %180 = sext i32 %179 to i64
  %181 = getelementptr inbounds [512 x %struct.Node], ptr %7, i64 0, i64 %180
  %182 = getelementptr inbounds nuw %struct.Node, ptr %181, i32 0, i32 3
  store i16 %178, ptr %182, align 2, !tbaa !89
  %183 = load i32, ptr %11, align 4, !tbaa !41
  %184 = add nsw i32 %183, 1
  store i32 %184, ptr %11, align 4, !tbaa !41
  store i32 0, ptr %21, align 4
  br label %185

185:                                              ; preds = %153, %151, %127
  call void @llvm.lifetime.end.p0(i64 4, ptr %19) #8
  call void @llvm.lifetime.end.p0(i64 4, ptr %18) #8
  call void @llvm.lifetime.end.p0(i64 4, ptr %17) #8
  call void @llvm.lifetime.end.p0(i64 4, ptr %16) #8
  call void @llvm.lifetime.end.p0(i64 4, ptr %15) #8
  %186 = load i32, ptr %21, align 4
  switch i32 %186, label %215 [
    i32 0, label %187
    i32 7, label %191
  ]

187:                                              ; preds = %185
  br label %188

188:                                              ; preds = %187
  %189 = load i32, ptr %12, align 4, !tbaa !41
  %190 = add nsw i32 %189, 1
  store i32 %190, ptr %12, align 4, !tbaa !41
  br label %78

191:                                              ; preds = %185
  %192 = load i32, ptr %13, align 4, !tbaa !41
  %193 = add nsw i32 %192, 1
  store i32 %193, ptr %13, align 4, !tbaa !41
  br label %194

194:                                              ; preds = %191
  %195 = load i32, ptr %11, align 4, !tbaa !41
  %196 = load ptr, ptr %6, align 8, !tbaa !29
  %197 = getelementptr inbounds nuw %struct.MVHAContext, ptr %196, i32 0, i32 1
  %198 = load i32, ptr %197, align 8, !tbaa !58
  %199 = sub nsw i32 %195, %198
  %200 = load i32, ptr %13, align 4, !tbaa !41
  %201 = icmp eq i32 %199, %200
  br i1 %201, label %77, label %202, !llvm.loop !92

202:                                              ; preds = %194
  %203 = getelementptr inbounds [256 x i32], ptr %8, i64 0, i64 0
  %204 = getelementptr inbounds [256 x i16], ptr %9, i64 0, i64 0
  %205 = getelementptr inbounds [256 x i8], ptr %10, i64 0, i64 0
  %206 = getelementptr inbounds [512 x %struct.Node], ptr %7, i64 0, i64 0
  %207 = load i32, ptr %11, align 4, !tbaa !41
  %208 = sub nsw i32 %207, 1
  call void @get_tree_codes(ptr noundef %203, ptr noundef %204, ptr noundef %205, ptr noundef %206, i32 noundef %208, i32 noundef 0, i32 noundef 0, ptr noundef %14)
  %209 = load ptr, ptr %5, align 8, !tbaa !81
  %210 = load i32, ptr %14, align 4, !tbaa !41
  %211 = getelementptr inbounds [256 x i16], ptr %9, i64 0, i64 0
  %212 = getelementptr inbounds [256 x i32], ptr %8, i64 0, i64 0
  %213 = getelementptr inbounds [256 x i8], ptr %10, i64 0, i64 0
  %214 = call i32 @ff_vlc_init_sparse(ptr noundef %209, i32 noundef 12, i32 noundef %210, ptr noundef %211, i32 noundef 2, i32 noundef 2, ptr noundef %212, i32 noundef 4, i32 noundef 4, ptr noundef %213, i32 noundef 1, i32 noundef 1, i32 noundef 0)
  store i32 %214, ptr %3, align 4
  store i32 1, ptr %21, align 4
  br label %215

215:                                              ; preds = %202, %185
  call void @llvm.lifetime.end.p0(i64 4, ptr %14) #8
  call void @llvm.lifetime.end.p0(i64 4, ptr %13) #8
  call void @llvm.lifetime.end.p0(i64 4, ptr %12) #8
  call void @llvm.lifetime.end.p0(i64 4, ptr %11) #8
  call void @llvm.lifetime.end.p0(i64 256, ptr %10) #8
  call void @llvm.lifetime.end.p0(i64 512, ptr %9) #8
  call void @llvm.lifetime.end.p0(i64 1024, ptr %8) #8
  call void @llvm.lifetime.end.p0(i64 6144, ptr %7) #8
  call void @llvm.lifetime.end.p0(i64 8, ptr %6) #8
  %216 = load i32, ptr %3, align 4
  ret i32 %216
}