; Function Attrs: nounwind uwtable
define internal fastcc i32 @build_vlc(ptr noundef %0, ptr noundef %1) unnamed_addr #1 {
  %3 = alloca [512 x %struct.Node], align 16
  %4 = alloca [256 x i32], align 16
  %5 = alloca [256 x i16], align 16
  %6 = alloca [256 x i8], align 16
  %7 = alloca i32, align 4
  %8 = getelementptr inbounds nuw i8, ptr %0, i64 32
  %9 = load ptr, ptr %8, align 8, !tbaa !4
  call void @llvm.lifetime.start.p0(i64 6144, ptr nonnull %3) #7
  call void @llvm.lifetime.start.p0(i64 1024, ptr nonnull %4) #7
  call void @llvm.lifetime.start.p0(i64 512, ptr nonnull %5) #7
  call void @llvm.lifetime.start.p0(i64 256, ptr nonnull %6) #7
  call void @llvm.lifetime.start.p0(i64 4, ptr nonnull %7) #7
  store i32 0, ptr %7, align 4, !tbaa !38
  tail call void @ff_vlc_free(ptr noundef %1) #7
  %10 = getelementptr inbounds nuw i8, ptr %9, i64 40
  %11 = load i32, ptr %10, align 8, !tbaa !53
  %12 = icmp sgt i32 %11, 0
  br i1 %12, label %.lr.ph, label %.preheader.preheader

.lr.ph:                                           ; preds = %2
  %13 = getelementptr inbounds nuw i8, ptr %9, i64 300
  %14 = getelementptr inbounds nuw i8, ptr %9, i64 44
  %wide.trip.count = zext nneg i32 %11 to i64
  br label %15

15:                                               ; preds = %.lr.ph, %15
  %indvars.iv = phi i64 [ 0, %.lr.ph ], [ %indvars.iv.next, %15 ]
  %16 = getelementptr inbounds nuw [256 x i32], ptr %13, i64 0, i64 %indvars.iv
  %17 = load i32, ptr %16, align 4, !tbaa !38
  %18 = getelementptr inbounds nuw [512 x %struct.Node], ptr %3, i64 0, i64 %indvars.iv
  %19 = getelementptr inbounds nuw i8, ptr %18, i64 8
  store i32 %17, ptr %19, align 4, !tbaa !69
  %20 = getelementptr inbounds nuw [256 x i8], ptr %14, i64 0, i64 %indvars.iv
  %21 = load i8, ptr %20, align 1, !tbaa !31
  %22 = zext i8 %21 to i16
  store i16 %22, ptr %18, align 4, !tbaa !72
  %23 = getelementptr inbounds nuw i8, ptr %18, i64 2
  store i16 -2, ptr %23, align 2, !tbaa !73
  %24 = trunc i64 %indvars.iv to i16
  %25 = getelementptr inbounds nuw i8, ptr %18, i64 4
  store i16 %24, ptr %25, align 4, !tbaa !74
  %26 = getelementptr inbounds nuw i8, ptr %18, i64 6
  store i16 %24, ptr %26, align 2, !tbaa !75
  %indvars.iv.next = add nuw nsw i64 %indvars.iv, 1
  %exitcond.not = icmp eq i64 %indvars.iv.next, %wide.trip.count
  br i1 %exitcond.not, label %.preheader.preheader, label %15, !llvm.loop !76

.preheader.preheader:                             ; preds = %15, %2
  br label %.preheader

.preheader:                                       ; preds = %.preheader.preheader, %65
  %indvars.iv92 = phi i64 [ %indvars.iv.next93, %65 ], [ 0, %.preheader.preheader ]
  %.062 = phi i32 [ %31, %65 ], [ %11, %.preheader.preheader ]
  %27 = sext i32 %.062 to i64
  br label %28

28:                                               ; preds = %57, %.preheader
  %indvars.iv97 = phi i64 [ %indvars.iv.next98, %57 ], [ %27, %.preheader ]
  %29 = getelementptr inbounds [512 x %struct.Node], ptr %3, i64 0, i64 %indvars.iv97
  %30 = getelementptr inbounds nuw i8, ptr %29, i64 8
  store i32 -1, ptr %30, align 4, !tbaa !69
  %31 = trunc nsw i64 %indvars.iv97 to i32
  %32 = and i64 %indvars.iv97, 4294967295
  br label %33

33:                                               ; preds = %46, %28
  %indvars.iv94 = phi i64 [ %indvars.iv.next95, %46 ], [ %indvars.iv92, %28 ]
  %.069 = phi i32 [ %.170, %46 ], [ %31, %28 ]
  %.067 = phi i32 [ %.168, %46 ], [ %31, %28 ]
  %34 = getelementptr inbounds nuw [512 x %struct.Node], ptr %3, i64 0, i64 %indvars.iv94, i32 4
  %35 = load i32, ptr %34, align 4, !tbaa !69
  %.not = icmp eq i32 %35, 0
  br i1 %.not, label %46, label %36

36:                                               ; preds = %33
  %37 = sext i32 %.069 to i64
  %38 = getelementptr inbounds [512 x %struct.Node], ptr %3, i64 0, i64 %37, i32 4
  %39 = load i32, ptr %38, align 4, !tbaa !69
  %40 = icmp ult i32 %35, %39
  br i1 %40, label %41, label %46

41:                                               ; preds = %36
  %42 = sext i32 %.067 to i64
  %43 = getelementptr inbounds [512 x %struct.Node], ptr %3, i64 0, i64 %42, i32 4
  %44 = load i32, ptr %43, align 4, !tbaa !69
  %.not78 = icmp ult i32 %35, %44
  %45 = trunc nuw nsw i64 %indvars.iv94 to i32
  %.067..071 = select i1 %.not78, i32 %.067, i32 %45
  %.071..067 = select i1 %.not78, i32 %45, i32 %.067
  br label %46

46:                                               ; preds = %41, %36, %33
  %.170 = phi i32 [ %.069, %36 ], [ %.069, %33 ], [ %.067..071, %41 ]
  %.168 = phi i32 [ %.067, %36 ], [ %.067, %33 ], [ %.071..067, %41 ]
  %indvars.iv.next95 = add nuw nsw i64 %indvars.iv94, 1
  %.not79 = icmp eq i64 %indvars.iv.next95, %32
  br i1 %.not79, label %47, label %33, !llvm.loop !77

47:                                               ; preds = %46
  %48 = icmp eq i32 %.170, %31
  br i1 %48, label %65, label %49

49:                                               ; preds = %47
  %50 = sext i32 %.168 to i64
  %51 = getelementptr inbounds [512 x %struct.Node], ptr %3, i64 0, i64 %50, i32 4
  %52 = load i32, ptr %51, align 4, !tbaa !69
  %53 = sext i32 %.170 to i64
  %54 = getelementptr inbounds [512 x %struct.Node], ptr %3, i64 0, i64 %53, i32 4
  %55 = load i32, ptr %54, align 4, !tbaa !69
  store i32 0, ptr %51, align 4, !tbaa !69
  store i32 0, ptr %54, align 4, !tbaa !69
  %56 = xor i32 %55, -1
  %.not80 = icmp ult i32 %52, %56
  br i1 %.not80, label %57, label %.thread

.thread:                                          ; preds = %49
  tail call void (ptr, i32, ptr, ...) @av_log(ptr noundef %0, i32 noundef 16, ptr noundef nonnull @.str.4) #7
  br label %72

57:                                               ; preds = %49
  %58 = add i32 %55, %52
  store i32 %58, ptr %30, align 4, !tbaa !69
  store i16 -1, ptr %29, align 4, !tbaa !72
  %59 = trunc i64 %indvars.iv97 to i16
  %60 = getelementptr inbounds nuw i8, ptr %29, i64 2
  store i16 %59, ptr %60, align 2, !tbaa !73
  %61 = trunc i32 %.170 to i16
  %62 = getelementptr inbounds nuw i8, ptr %29, i64 4
  store i16 %61, ptr %62, align 4, !tbaa !74
  %63 = trunc i32 %.168 to i16
  %64 = getelementptr inbounds nuw i8, ptr %29, i64 6
  store i16 %63, ptr %64, align 2, !tbaa !75
  %indvars.iv.next98 = add nsw i64 %indvars.iv97, 1
  br label %28

65:                                               ; preds = %47
  %indvars.iv.next93 = add nuw i64 %indvars.iv92, 1
  %indvars = trunc i64 %indvars.iv.next93 to i32
  %66 = sub nsw i32 %31, %11
  %67 = icmp eq i32 %66, %indvars
  br i1 %67, label %.preheader, label %68, !llvm.loop !78

68:                                               ; preds = %65
  %69 = add nsw i32 %31, -1
  call fastcc void @get_tree_codes(ptr noundef %4, ptr noundef %5, ptr noundef %6, ptr noundef %3, i32 noundef %69, i32 noundef 0, i32 noundef 0, ptr noundef %7)
  %70 = load i32, ptr %7, align 4, !tbaa !38
  %71 = call i32 @ff_vlc_init_sparse(ptr noundef %1, i32 noundef 12, i32 noundef %70, ptr noundef nonnull %5, i32 noundef 2, i32 noundef 2, ptr noundef nonnull %4, i32 noundef 4, i32 noundef 4, ptr noundef nonnull %6, i32 noundef 1, i32 noundef 1, i32 noundef 0) #7
  br label %72

72:                                               ; preds = %.thread, %68
  %.3 = phi i32 [ %71, %68 ], [ -1094995529, %.thread ]
  call void @llvm.lifetime.end.p0(i64 4, ptr nonnull %7) #7
  call void @llvm.lifetime.end.p0(i64 256, ptr nonnull %6) #7
  call void @llvm.lifetime.end.p0(i64 512, ptr nonnull %5) #7
  call void @llvm.lifetime.end.p0(i64 1024, ptr nonnull %4) #7
  call void @llvm.lifetime.end.p0(i64 6144, ptr nonnull %3) #7
  ret i32 %.3
}